(dp1
S'output'
p2
S"<type 'exceptions.NameError'> name 'item' is not defined"
p3
sS'layer'
p4
S'/Users/benny/Downloads/web2py/applications/pixel/views/default/following.html'
p5
sS'code'
p6
S'response.write(\'<!DOCTYPE html>\\n<!--[if (gt IE 9)|!(IE)]><!-->\\n<html class="no-js" lang="\', escape=False)\nresponse.write(T.accepted_language or \'en\')\nresponse.write(\'">\\n<!--<![endif]-->\\n\\n<head>\\n    <meta charset="utf-8">\\n    <!-- www.phpied.com/conditional-comments-block-downloads/ -->\\n    <!-- Always force latest IE rendering engine\\n         (even in intranet) & Chrome Frame\\n         Remove this if you use the .htaccess -->\\n    <meta http-equiv="X-UA-Compatible" content="IE=edge\', escape=False)\nresponse.write(not request.is_local and \',chrome=1\' or \'\')\nresponse.write(\'">\\n    <!--  Mobile Viewport Fix\\n          j.mp/mobileviewport & davidbcalhoun.com/2010/viewport-metatag\\n          device-width: Occupy full width of the screen in its current orientation\\n          initial-scale = 1.0 retains dimensions instead of zooming out if page height > device height\\n          user-scalable = yes allows the user to zoom in -->\\n    <meta name="viewport" content="width=device-width, initial-scale=1.0">\\n    <title>Sland</title>\\n    <!-- http://dev.w3.org/html5/markup/meta.name.html -->\\n    <meta name="application-name" content="\', escape=False)\nresponse.write(request.application)\nresponse.write(\'">\\n    <!-- Speaking of Google, don\\\'t forget to set your site up:\\n         http://google.com/webmasters -->\\n    <meta name="google-site-verification" content="">\\n    <!-- include stylesheets -->\\n    <link rel="stylesheet" href="\', escape=False)\nresponse.write(URL(\'static\',\'css/myapp.css\'))\nresponse.write(\'" />\\n    <link rel="stylesheet" href="\', escape=False)\nresponse.write(URL(\'static\', \'font-awesome-4.4.0/css/font-awesome.min.css\'))\nresponse.write(\'" />\\n    <link rel="shortcut icon" href="\', escape=False)\nresponse.write(URL(\'static\',\'images/favicon.ico\'))\nresponse.write(\'" type="image/x-icon">\\n    <link rel="apple-touch-icon" href="\', escape=False)\nresponse.write(URL(\'static\',\'images/favicon.png\'))\nresponse.write(\'">\\n    <!--Import Google Icon Font-->\\n    <link href="http://fonts.googleapis.com/icon?family=Material+Icons" rel="stylesheet">\\n    <!--Import materialize.css-->\\n    <link type="text/css" rel="stylesheet" href="\', escape=False)\nresponse.write(URL(\'static\', \'css/materialize.min.css\'))\nresponse.write(\'" media="screen,projection" />\\n    <!-- All JavaScript at the bottom, except for Modernizr which enables\\n         HTML5 elements & feature detects -->\\n    <script src="\', escape=False)\nresponse.write(URL(\'static\',\'js/modernizr-2.8.3.min.js\'))\nresponse.write(\'"></script>\\n    <!--[if lt IE 9]>\\n        <script src="\', escape=False)\nresponse.write(URL(\'static\',\'js/respond-1.4.2.min.js\'))\nresponse.write(\'"></script>\\n        <![endif]-->\\n    <!-- Favicons -->\\n    \', escape=False)\nresponse.write(\'<script type="text/javascript"><!--\\n    // These variables are used by the web2py_ajax_init function in web2py_ajax.js (which is loaded below).\\n    var w2p_ajax_confirm_message = "\', escape=False)\nresponse.write(T(\'Are you sure you want to delete this object?\'))\nresponse.write(\'";\\n    var w2p_ajax_disable_with_message = "\', escape=False)\nresponse.write(T(\'Working...\'))\nresponse.write(\'";\\n    var w2p_ajax_date_format = "\', escape=False)\nresponse.write(T(\'%Y-%m-%d\'))\nresponse.write(\'";\\n    var w2p_ajax_datetime_format = "\', escape=False)\nresponse.write(T(\'%Y-%m-%d %H:%M:%S\'))\nresponse.write(\'";\\n    var ajax_error_500 = \\\'\', escape=False)\nresponse.write(T.M(\'An error occured, please [[reload %s]] the page\') % URL(args=request.args, vars=request.get_vars))\nresponse.write("\'\\n    //--></script>\\n", escape=False)\nresponse.files.insert(0,URL(\'static\',\'js/jquery.js\'))\nresponse.files.insert(1,URL(\'static\',\'css/calendar.css\'))\nresponse.files.insert(2,URL(\'static\',\'js/calendar.js\'))\nresponse.files.insert(3,URL(\'static\',\'js/web2py.js\'))\nresponse.include_meta()\nresponse.include_files()\nresponse.write(\'\\n\', escape=False)\nresponse.write(\'\\n    <!-- this includes jquery.js, calendar.js/.css and web2py.js -->\\n\\n</head>\\n\\n<body style="display: flex;min-height: 100vh;flex-direction: column;">\\n    <!--[if lt IE 8]><p class="browserupgrade">You are using an <strong>outdated</strong> browser. Please <a href="http://browsehappy.com/">upgrade your browser</a> to improve your experience.</p><![endif]-->\\n    <div class="flash alert alert-dismissable">\', escape=False)\nresponse.write(response.flash or \'\')\nresponse.write(\'</div>\\n    <!-- The javascript =============================== -->\\n    <script src="\', escape=False)\nresponse.write(URL(\'static\', \'js/ractive.min.js\'))\nresponse.write(\'"></script>\\n    <script src="\', escape=False)\nresponse.write(URL(\'static\', \'js/materialize.min.js\'))\nresponse.write(\'"></script>\\n    <script src="\', escape=False)\nresponse.write(URL(\'static\', \'js/jquery.masonry.min.js\'))\nresponse.write(\'"></script>\\n\\n    <!-- Dropdown Structure -->\\n    <ul id="dropdown1" class="dropdown-content">\\n        \', escape=False)\nif auth.user_id is not None:\n    response.write(\'\\n        <li><a href="\', escape=False)\n    response.write(URL(\'default\', \'profile\', args=[auth.user_id]))\n    response.write(\'">Profile</a></li>\\n        \', escape=False)\n    pass\nresponse.write(\'\\n        <li><a href="\', escape=False)\nresponse.write(URL(\'default\', \'user\', args=[\'change_password\']))\nresponse.write(\'">Setting</a></li>\\n        <li class="divider"></li>\\n        <li><a href="\', escape=False)\nresponse.write(URL(\'default\', \'user\', args=[\'logout\']))\nresponse.write(\'">Log out</a></li>\\n    </ul>\\n    <ul id="dropdown2" class="dropdown-content">\\n        <li><a href="\', escape=False)\nresponse.write(URL(\'default\', \'shares\'))\nresponse.write(\'">Recent</a></li>\\n        <li><a href="">Popular</a></li>\\n        <li class="divider"></li>\\n        \', escape=False)\nif auth.user_id is not None:\n    response.write(\'\\n        <li><a href="\', escape=False)\n    response.write(URL(\'default\', \'following\'))\n    response.write(\'">Following</a></li>\\n        \', escape=False)\n    pass\nresponse.write(\'\\n    </ul>\\n    <div class="navbar-fixed">\\n        <nav class="grey darken-4">\\n            <div class="nav-wrapper">\\n                <a href="#!" class="brand-logo center" style="margin: 0px 0px 0px 10px; font-family: \\\'Gorge\\\'">PIXEL</a>\\n                \', escape=False)\nif auth.user_id is not None:\n    response.write(\'\\n                <a href="#" data-activates="mobile-demo" class="button-collapse"><i class="material-icons">menu</i></a>\\n                \', escape=False)\n    pass\nresponse.write(\'\\n                <ul class="left hide-on-med-and-down">\\n\\n                    <li id="shares_nav"><a class="waves-effect waves-light dropdown-button" href="#" data-activates="dropdown2">Shots<i class="material-icons right">arrow_drop_down</i></a></li>\\n                    <li id="people_nav"><a class="waves-effect waves-light" href="\', escape=False)\nresponse.write(URL(\'default\', \'people\'))\nresponse.write(\'">Artists</a></li>\\n\\n\\n                </ul>\\n                <ul class="right">\\n                    <li>\\n                        <form class="grey darken-2">\\n                            <div class="input-field ">\\n                                <input id="search" type="search" required>\\n                                <label class="label-icon" for="search"><i class="material-icons">search</i></label>\\n                                <i class="material-icons">close</i>\\n                            </div>\\n                        </form>\\n                    </li>\\n                    <!-- Dropdown Trigger -->\\n                    \', escape=False)\nif auth.user_id is not None:\n    response.write(\'\\n                    <li><a class="dropdown-button" href="#!" data-activates="dropdown1">\', escape=False)\n    response.write(auth.user.first_name)\n    response.write(\' \', escape=False)\n    response.write(auth.user.last_name)\n    response.write(\'<i class="material-icons right">arrow_drop_down</i></a></li>\\n                    \', escape=False)\n    pass\nresponse.write(\'\\n                </ul>\\n\\n\\n\\n                <ul class="side-nav" id="mobile-demo">\\n                    <li><a href="\', escape=False)\nresponse.write(URL(\'default\', \'shares\'))\nresponse.write(\'">Shots</a></li>\\n                    <li><a href="\', escape=False)\nresponse.write(URL(\'default\', \'people\'))\nresponse.write(\'">Artists</a></li>\\n                    \', escape=False)\nif auth.user_id is not None:\n    response.write(\'\\n                    <li><a href="\', escape=False)\n    response.write(URL(\'default\', \'profile\', args=[auth.user_id]))\n    response.write(\'">Profile</a></li>\\n                    \', escape=False)\n    pass\nresponse.write(\'\\n                    <li><a href="\', escape=False)\nresponse.write(URL(\'default\', \'user\', args=[\'change_password\']))\nresponse.write(\'">Setting</a></li>\\n                    <li class="divider"></li>\\n                    <li><a href="\', escape=False)\nresponse.write(URL(\'default\', \'user\', args=[\'logout\']))\nresponse.write(\'">Log out</a></li>\\n                </ul>\\n            </div>\\n        </nav>\\n    </div>\\n\\n    <!-- Main ========================================= -->\\n    <!-- Begin page content -->\\n    <div class="container-fluid main-container ">\\n        \', escape=False)\nresponse.write(\' \', escape=False)\nresponse.write(\'\\n<link rel="stylesheet" href="\', escape=False)\nresponse.write(URL(\'static\', \'css/shares.css\'))\nresponse.write(\'"/>\\n\\n<!-- New Share Button -->\\n<div class="fixed-action-btn" style="bottom: 80px; right: 24px;">\\n    <a class="btn-floating btn-large red modal-trigger" href="#modal1">\\n      <i class="large material-icons">mode_edit</i>\\n    </a>\\n</div>\\n<!-- End New Share Button -->\\n\\n<!-- To Top Button -->\\n<div id="to-top" class="fixed-action-btn" style="bottom: 15px; right: 24px;">\\n    <a class="btn-floating btn-large teal lighten-1">\\n      <i class="large material-icons">publish</i>\\n    </a>\\n</div>\\n<!-- End Top Top Button -->\\n\\n<!-- Create Share Modal Structure -->\\n<div id="modal1" class="modal modal-fixed-footer">\\n    <div class="modal-content">\\n      <h4>New Share</h4>\\n      <p>Create your new share here.</p>\\n        <form id="share-form" method="post">\\n            <div class="row">\\n                <div class="file-field input-field">\\n                    <div class="btn">\\n                        <span>Picture</span>\\n                        <input id="share-picture" type="file">\\n                    </div>\\n                    <div class="file-path-wrapper">\\n                        <input class="file-path validate" type="text" placeholder="Upload your picture file">\\n                    </div>\\n                    <div id="share-picture-info"></div>\\n                </div>\\n            </div>\\n            <div class="row">\\n                <div class="input-field col s12">\\n                    <i class="material-icons prefix">label_outline</i>\\n                  <input id="title" type="text" class="validate" length="10" name="title">\\n                  <label id="title-label" for="title">Title</label>\\n                    <div id="title-info"></div>\\n                </div>\\n            </div>\\n            <div class="row">\\n                <div class="input-field col s12">\\n                    <i class="material-icons prefix">label_outline</i>\\n                  <textarea id="information" type="text" class="materialize-textarea" length="100" name="information"></textarea>\\n                  <label id="information-label" for="information">Information</label>\\n                    <div id="information-info"></div>\\n                </div>\\n            </div>\\n        </form>\\n    </div>\\n    <div class="modal-footer">\\n        <a href="#!" class="modal-action modal-close waves-effect waves-green btn-flat ">Cancel</a>\\n      <a id="share-form-create" href="#!" class="waves-effect waves-green btn-flat ">Create</a>\\n    </div>\\n</div>\\n<!-- End Create Share Modal Structure -->\\n\\n<div class="row"></div>\\n<div id="target" class="row"></div>\\n<div class="container row center-align">\\n    <a id="load-more" class="col s12 white waves-effect btn-large btn-flat">Load More</a>\\n</div>\\n\\n<script id="template" type="text/ractive">\\n<!-- Messages Modal Structure -->\\n<div id="modal2" class="modal bottom-sheet">\\n    <div class="modal-content">\\n      <h5>Messages</h5>\\n      <div class="row">\\n          <!-- Messages Form -->\\n      <form id="message-form" method="post">\\n        <input id="message" type="text" class="validate" name="message_content">\\n        <div id="message-info"></div>\\n      </form>\\n          <!-- End Messages Form -->\\n          <button on-click="create-message" class="btn waves-effect waves-light">Submit\\n        <i class="material-icons right">send</i>\\n        </button>\\n      <ul class="collection">\\n          {% #each messages %}\\n          <li class="collection-item avatar">\\n            {% #if avatar!=null && avatar.length > 0 %}\\n              <img src="{% url %}{% avatar %}" class="circle" on-click="view_profile" data-author="{% author %}">\\n            {% else %}\\n              <img src="{% default_url %}" class="circle" on-click="view_profile" data-author="{% author %}">\\n            {% /if %}\\n            <span class="title">{% first_name %} {% last_name %}</span>\\n            <p style="word-break:break-all; white-space:normal;">{% message_content %}</p>\\n          </li>\\n          {% /each %}\\n      </ul>\\n      </div>\\n    </div>\\n</div>\\n<!-- End Messages Modal Structure -->\\n<div id="container" style="margin: auto">\\n\', escape=False)\n#each shares as items\nresponse.write(\'\\n\', escape=False)\n#each items as item\nresponse.write(\'\\n<div class="card" style="float: left; width: 260px; margin: 10px;">\\n    <div class="card-image waves-effect waves-block waves-light">\\n      <img class="activator" src="\', escape=False)\nitem.url\nitem.picture\nresponse.write(\'">\\n    </div>\\n    <div class="card-content">\\n      <span style="word-break:break-all; white-space:normal;" class="card-title activator grey-text text-darken-4">\', escape=False)\nitem.title\nresponse.write(\'<i class="material-icons right">more_vert</i></span>\\n      <p><a on-click="messages" data-share_id="\', escape=False)\nitem.id\nresponse.write(\'">Messages</a></p>\\n    </div>\\n    <div class="card-reveal">\\n      <span class="card-title grey-text text-darken-4">More Information<i class="material-icons right">close</i></span>\\n      <p style="word-break:break-all; white-space:normal;">Shared by \', escape=False)\nitem.first_name\nresponse.write(\' \', escape=False)\nitem.last_name\nresponse.write(\'</p>\\n      <p style="word-break:break-all; white-space:normal;">\', escape=False)\nitem.information\nresponse.write(\'<p>\\n    </div>\\n</div>\\n{% /each %}\\n{% /each %}\\n</div>\\n\\n</script>\\n\\n\\n<script>\\n$(document).ready(function(){\\n    $(".button-collapse").sideNav();\\n    $("#shares_nav").addClass("active");\\n    $("#people_nav").removeClass("active");\\n    $(\\\'.modal-trigger\\\').leanModal();\\n    $(\\\'.title\\\').characterCounter();\\n    $(\\\'.information\\\').characterCounter();\\n\\n    var ractive = new Ractive({\\n        el: \\\'#target\\\',\\n        template: \\\'#template\\\',\\n        delimiters: [\\\'{%\\\', \\\'%}\\\'],\\n        tripleDelimiters: [\\\'{%%\\\', \\\'%%}\\\'],\\n        data: {\\n            shares: [],\\n            url: "\', escape=False)\nresponse.write(URL(\'default\', \'download\'))\nresponse.write(\'" + \\\'/\\\',\\n            default_url: "\', escape=False)\nresponse.write(URL(\'static\', \'images/user-default.jpg\'))\nresponse.write(\'",\\n            profile_url: "\', escape=False)\nresponse.write(URL(\'default\', \'profile\'))\nresponse.write(\'" + \\\'/\\\',\\n            messages: [],\\n            share_id: \\\'\\\',\\n            number: 24,\\n        }\\n    });\\n\\n    // When click on an avatar in a message, jump to author\\\'s homepage\\n    ractive.on("view_profile", function(e) {\\n        var user_id = $(e.node).data("author");\\n        window.location.href = ractive.get("profile_url") + user_id;\\n    });\\n\\n    function load_messages() {\\n        $.ajax("\', escape=False)\nresponse.write(URL(\'default\', \'load_messages\', user_signature=True))\nresponse.write(\'", {\\n            method: "POST",\\n            data: {\\n               share_id: ractive.get(\\\'share_id\\\')\\n            },\\n            success: function(data) {\\n                ractive.set(\\\'messages\\\', data["messages"]);\\n            }\\n        });\\n    }\\n\\n    // Read messages\\n    ractive.on("messages", function(e) {\\n        var share_id = $(e.node).data("share_id");\\n        ractive.set(\\\'share_id\\\', share_id);\\n        // Load messages\\n        load_messages();\\n        $(\\\'#modal2\\\').openModal();\\n    });\\n\\n    // Write a new message\\n    ractive.on("create-message",function () {\\n        var valid = true;\\n        if ($("#message").val().length > 200) {\\n            $("#message-info").text("The number of characters should be less than 200.");\\n            valid = false;\\n        } else if ($("#message").val().length == 0) {\\n            $("#message-info").text("The message cannot be empty.");\\n            valid = false;\\n        }\\n        else {\\n            $("#message-info").text(\\\'\\\');\\n            $.ajax("\', escape=False)\nresponse.write(URL(\'default\', \'create_message\', user_signature=True))\nresponse.write(\'", {\\n                method: \\\'POST\\\',\\n                data: $("#message-form").serialize() + "&share_id=" + ractive.get(\\\'share_id\\\'),\\n                success: function () {\\n                    load_messages();\\n                }\\n            });\\n        }\\n    });\\n\\n    function load_shares() {\\n        var number = ractive.get(\\\'number\\\');\\n        $.ajax("\', escape=False)\nresponse.write(URL(\'default\', \'load_following\', user_signature=True))\nresponse.write(\'", {\\n            method: "POST",\\n            data: {\\n                number: number,\\n                user_id: "\', escape=False)\nresponse.write(user_id)\nresponse.write(\'"\\n            },\\n            success: function(data) {\\n                ractive.set(\\\'shares\\\', data["shares"]);\\n                var $container = $(\\\'#container\\\');\\n                $container.imagesLoaded(function(){\\n                  $container.masonry({\\n                      itemSelector : \\\'.card\\\',\\n                      isAnimated: true,\\n                      columnWidth : 280,\\n                      isFitWidth: true,\\n                      containerStyle: {position: \\\'relative\\\'}\\n                  });\\n                });\\n            }\\n        });\\n    }\\n\\n    function reload_shares() {\\n        var number = ractive.get(\\\'number\\\');\\n        $.ajax("\', escape=False)\nresponse.write(URL(\'default\', \'load_following\', user_signature=True))\nresponse.write(\'", {\\n            method: "POST",\\n            data: {\\n                number: number,\\n                user_id: "\', escape=False)\nresponse.write(user_id)\nresponse.write(\'"\\n            },\\n            success: function(data) {\\n                ractive.set(\\\'shares\\\', data["shares"]);\\n                reload();\\n            }\\n        });\\n    }\\n\\n    // Load shares\\n    load_shares();\\n\\n    function reload() {\\n        var $container = $(\\\'#container\\\');\\n        $container.masonry(\\\'reload\\\');\\n    }\\n\\n\\n    // Variable to store your files\\n    var share_picture;\\n    // Add events\\n    $(\\\'#share-picture\\\').on(\\\'change\\\', prepareUpload);\\n    // Grab the files and set them to our variable\\n    function prepareUpload(event)\\n    {\\n      share_picture = event.target.files[0];\\n    }\\n\\n\\n    $("#share-form-create").click(function (event) {\\n        event.stopPropagation(); // Stop stuff happening\\n        event.preventDefault(); // Totally stop stuff happening\\n\\n        // START A LOADING SPINNER HERE\\n\\n        // Create a formdata object and add the files\\n        var formData = new FormData();\\n\\n        var valid = true;\\n        if ($("#title").val().length > 10) {\\n            $("#title-info").text("The number of characters should be less than 10.");\\n            valid = false;\\n        } else {\\n            $("#title-info").text(\\\'\\\');\\n        }\\n        if ($("#information").val().length > 100) {\\n            $("#information-info").text("The number of characters should be less than 100.");\\n            valid = false;\\n        } else {\\n            $("#information-info").text(\\\'\\\');\\n        }\\n\\n        if (share_picture != null) {\\n            if (share_picture.type.match(/image\\\\/(jpe?g|png)$/i)) {\\n                if (share_picture.size <= 1048576) {\\n                    formData.append(\\\'title\\\', $("#title").val());\\n                    formData.append(\\\'information\\\', $("#information").val());\\n                    formData.append(\\\'picture\\\', share_picture, share_picture.name);\\n                    if (valid == true) {\\n                       $("#modal1").closeModal();\\n                        $.ajax("\', escape=False)\nresponse.write(URL(\'default\', \'create_share\', user_signature=True))\nresponse.write(\'", {\\n                            data: formData,\\n                            method: "POST",\\n                            cache: false,\\n                            dataType: \\\'json\\\',\\n                            processData: false, // Don\\\'t process the files\\n                            contentType: false, // Set content type to false as jQuery will tell the server its a query string request\\n                            success: function () {\\n                                $("#share-picture-info").text("");\\n                                $("#title-info").text(\\\'\\\');\\n                                $("#information-info").text(\\\'\\\');\\n                                reload_shares();\\n                            },\\n                            error: function () {\\n\\n                            }\\n                        });\\n                    }\\n                    return false;\\n                } else {\\n                    // Size is too big\\n                    $("#share-picture-info").text("Picture file cannot be greater than 1MB.");\\n                }\\n            } else {\\n                // Type is not right\\n                $("#share-picture-info").text("Picture file can only be png, jpg/jpeg format.");\\n            }\\n        } else {\\n            // No file selected\\n            $("#share-picture-info").text("Picture file cannot be empty.");\\n        }\\n    });\\n    setInterval(reload, 1000);\\n\\n    // Load More button\\n    $("#load-more").click(function() {\\n        var number = ractive.get("number");\\n        ractive.set("number", number * 2);\\n        reload_shares();\\n    });\\n    \\n    // Back to top\\n    $("#to-top").click(function(e) {\\n        e.preventDefault();\\n        $("body").animate({\\n            scrollTop: 0\\n        }, 700);\\n    });\\n});\\n</script>\\n\', escape=False)\nresponse.write(\' \', escape=False)\nresponse.write(\'\\n    </div>\\n\\n    \', escape=False)\nresponse.write(\'\\n    <footer class="page-footer grey darken-4">\\n        <div class="container">\\n            <div class="row">\\n                <div class="col l8 m8 s12">\\n                    <h5 class="white-text" style="font-family: \\\'Trocchi\\\', serif;">PIXEL</h5>\\n                </div>\\n                <div class="col l4 m4 s12">\\n                    <h5 class="white-text" style="font-family: \\\'Trocchi\\\', serif;">Contact Info</h5>\\n                    <ul>\\n                        <li>\\n\\n                            <a class="grey-text text-lighten-3" href=""></a>\\n                        </li>\\n\\n                    </ul>\\n                </div>\\n            </div>\\n        </div>\\n        <div class="footer-copyright">\\n            <div class="container">\\n                \\xc2\\xa9 \', escape=False)\nresponse.write(request.now.year)\nresponse.write(\' Copyright\\n                <span class="right">Powered by <a class="grey-text text-lighten-4" href="http://www.web2py.com/">Web2py</a></span>\\n            </div>\\n        </div>\\n    </footer>\\n    \', escape=False)\nresponse.write(\'\\n</body>\\n\\n</html>\\n\', escape=False)'
p7
sS'snapshot'
p8
(dp9
sS'traceback'
p10
S'Traceback (most recent call last):\n  File "/Users/benny/Downloads/web2py/gluon/restricted.py", line 227, in restricted\n    exec ccode in environment\n  File "/Users/benny/Downloads/web2py/applications/pixel/views/default/following.html", line 103, in <module>\n    {{ #each items as item}}\nNameError: name \'item\' is not defined\n'
p11
s.